target datalayout = "e-m:e-p270:32:32-p271:32:32-p272:64:64-i64:64-i128:128-f80:128-n8:16:32:64-S128"
target triple = "x86_64-pc-linux-gnu"

@.str.9 = private unnamed_addr constant [13 x i8] c"HANDSHAKE_OK\00", align 1
@.str.10 = private unnamed_addr constant [29 x i8] c"CLIENT_NONCE_UNKNOWN_FAILURE\00", align 1
@.str.11 = private unnamed_addr constant [29 x i8] c"CLIENT_NONCE_INVALID_FAILURE\00", align 1
@.str.12 = private unnamed_addr constant [32 x i8] c"CLIENT_NONCE_NOT_UNIQUE_FAILURE\00", align 1
@.str.13 = private unnamed_addr constant [35 x i8] c"CLIENT_NONCE_INVALID_ORBIT_FAILURE\00", align 1
@.str.14 = private unnamed_addr constant [34 x i8] c"CLIENT_NONCE_INVALID_TIME_FAILURE\00", align 1
@.str.15 = private unnamed_addr constant [37 x i8] c"CLIENT_NONCE_STRIKE_REGISTER_TIMEOUT\00", align 1
@.str.16 = private unnamed_addr constant [37 x i8] c"CLIENT_NONCE_STRIKE_REGISTER_FAILURE\00", align 1
@.str.17 = private unnamed_addr constant [32 x i8] c"SERVER_NONCE_DECRYPTION_FAILURE\00", align 1
@.str.18 = private unnamed_addr constant [29 x i8] c"SERVER_NONCE_INVALID_FAILURE\00", align 1
@.str.19 = private unnamed_addr constant [32 x i8] c"SERVER_NONCE_NOT_UNIQUE_FAILURE\00", align 1
@.str.20 = private unnamed_addr constant [34 x i8] c"SERVER_NONCE_INVALID_TIME_FAILURE\00", align 1
@.str.21 = private unnamed_addr constant [30 x i8] c"SERVER_NONCE_REQUIRED_FAILURE\00", align 1
@.str.22 = private unnamed_addr constant [37 x i8] c"SERVER_CONFIG_INCHOATE_HELLO_FAILURE\00", align 1
@.str.23 = private unnamed_addr constant [37 x i8] c"SERVER_CONFIG_UNKNOWN_CONFIG_FAILURE\00", align 1
@.str.24 = private unnamed_addr constant [37 x i8] c"SOURCE_ADDRESS_TOKEN_INVALID_FAILURE\00", align 1
@.str.25 = private unnamed_addr constant [40 x i8] c"SOURCE_ADDRESS_TOKEN_DECRYPTION_FAILURE\00", align 1
@.str.26 = private unnamed_addr constant [35 x i8] c"SOURCE_ADDRESS_TOKEN_PARSE_FAILURE\00", align 1
@.str.27 = private unnamed_addr constant [50 x i8] c"SOURCE_ADDRESS_TOKEN_DIFFERENT_IP_ADDRESS_FAILURE\00", align 1
@.str.28 = private unnamed_addr constant [40 x i8] c"SOURCE_ADDRESS_TOKEN_CLOCK_SKEW_FAILURE\00", align 1
@.str.29 = private unnamed_addr constant [37 x i8] c"SOURCE_ADDRESS_TOKEN_EXPIRED_FAILURE\00", align 1
@.str.30 = private unnamed_addr constant [34 x i8] c"INVALID_EXPECTED_LEAF_CERTIFICATE\00", align 1
@.str.31 = private unnamed_addr constant [19 x i8] c"MAX_FAILURE_REASON\00", align 1
@.str.32 = private unnamed_addr constant [33 x i8] c"INVALID_HANDSHAKE_FAILURE_REASON\00", align 1

; Function Attrs: mustprogress nounwind uwtable
define noundef ptr @_ZN3net11CryptoUtils30HandshakeFailureReasonToStringENS_22HandshakeFailureReasonE(i32 noundef %0) #3 align 2 {
  %2 = alloca ptr, align 8
  %3 = alloca i32, align 4
  store i32 %0, ptr %3, align 4, !tbaa !100
  %4 = load i32, ptr %3, align 4, !tbaa !100
  switch i32 %4, label %28 [
    i32 0, label %5
    i32 1, label %6
    i32 2, label %7
    i32 3, label %8
    i32 4, label %9
    i32 5, label %10
    i32 6, label %11
    i32 7, label %12
    i32 8, label %13
    i32 9, label %14
    i32 10, label %15
    i32 11, label %16
    i32 20, label %17
    i32 12, label %18
    i32 13, label %19
    i32 14, label %20
    i32 15, label %21
    i32 16, label %22
    i32 17, label %23
    i32 18, label %24
    i32 19, label %25
    i32 21, label %26
    i32 22, label %27
  ]

5:                                                ; preds = %1
  store ptr @.str.9, ptr %2, align 8
  br label %29

6:                                                ; preds = %1
  store ptr @.str.10, ptr %2, align 8
  br label %29

7:                                                ; preds = %1
  store ptr @.str.11, ptr %2, align 8
  br label %29

8:                                                ; preds = %1
  store ptr @.str.12, ptr %2, align 8
  br label %29

9:                                                ; preds = %1
  store ptr @.str.13, ptr %2, align 8
  br label %29

10:                                               ; preds = %1
  store ptr @.str.14, ptr %2, align 8
  br label %29

11:                                               ; preds = %1
  store ptr @.str.15, ptr %2, align 8
  br label %29

12:                                               ; preds = %1
  store ptr @.str.16, ptr %2, align 8
  br label %29

13:                                               ; preds = %1
  store ptr @.str.17, ptr %2, align 8
  br label %29

14:                                               ; preds = %1
  store ptr @.str.18, ptr %2, align 8
  br label %29

15:                                               ; preds = %1
  store ptr @.str.19, ptr %2, align 8
  br label %29

16:                                               ; preds = %1
  store ptr @.str.20, ptr %2, align 8
  br label %29

17:                                               ; preds = %1
  store ptr @.str.21, ptr %2, align 8
  br label %29

18:                                               ; preds = %1
  store ptr @.str.22, ptr %2, align 8
  br label %29

19:                                               ; preds = %1
  store ptr @.str.23, ptr %2, align 8
  br label %29

20:                                               ; preds = %1
  store ptr @.str.24, ptr %2, align 8
  br label %29

21:                                               ; preds = %1
  store ptr @.str.25, ptr %2, align 8
  br label %29

22:                                               ; preds = %1
  store ptr @.str.26, ptr %2, align 8
  br label %29

23:                                               ; preds = %1
  store ptr @.str.27, ptr %2, align 8
  br label %29

24:                                               ; preds = %1
  store ptr @.str.28, ptr %2, align 8
  br label %29

25:                                               ; preds = %1
  store ptr @.str.29, ptr %2, align 8
  br label %29

26:                                               ; preds = %1
  store ptr @.str.30, ptr %2, align 8
  br label %29

27:                                               ; preds = %1
  store ptr @.str.31, ptr %2, align 8
  br label %29

28:                                               ; preds = %1
  store ptr @.str.32, ptr %2, align 8
  br label %29

29:                                               ; preds = %28, %27, %26, %25, %24, %23, %22, %21, %20, %19, %18, %17, %16, %15, %14, %13, %12, %11, %10, %9, %8, %7, %6, %5
  %30 = load ptr, ptr %2, align 8
  ret ptr %30
}